target datalayout = "e-m:e-p270:32:32-p271:32:32-p272:64:64-i64:64-i128:128-f80:128-n8:16:32:64-S128"
target triple = "x86_64-pc-linux-gnu"

%class.QString = type { %struct.QArrayDataPointer }
%struct.QArrayDataPointer = type { ptr, ptr, i64 }
%class.QSharedPointer = type { ptr, ptr }
%class.RtpPlayerDialog = type { %class.RtpBaseDialog.base, ptr, ptr, ptr, double, double, double, double, double, double, ptr, ptr, %class.QString, %class.QSharedPointer, %class.QSharedPointer.1, i8, %class.QList.2, ptr, %class.QTimer, i64, i32, ptr, i8, ptr, ptr, ptr, ptr, ptr, %class.QMultiHash, i8, i32, i8, double, ptr, %class.QPoint }
%class.RtpBaseDialog.base = type { %class.WiresharkDialog.base }
%class.WiresharkDialog.base = type <{ %class.GeometryStateDialog, ptr, i8, [7 x i8], %class.QString, %class.QList, i32, i8 }>
%class.GeometryStateDialog = type { %class.QDialog, %class.QString, ptr }
%class.QDialog = type { %class.QWidget }
%class.QWidget = type { %class.QObject, %class.QPaintDevice.base, ptr }
%class.QObject = type { ptr, %class.QScopedPointer }
%class.QScopedPointer = type { ptr }
%class.QPaintDevice.base = type <{ ptr, i16 }>
%class.QList = type { %struct.QArrayDataPointer.0 }
%struct.QArrayDataPointer.0 = type { ptr, ptr, i64 }
%class.QSharedPointer.1 = type { ptr, ptr }
%class.QList.2 = type { %struct.QArrayDataPointer.5 }
%struct.QArrayDataPointer.5 = type { ptr, ptr, i64 }
%class.QTimer = type { %class.QObject }
%class.QMultiHash = type { ptr, i64 }
%class.QPoint = type { i32, i32 }
%class.Ui_RtpPlayerDialog = type { ptr, ptr, ptr, ptr, ptr, ptr, ptr, ptr, ptr, ptr, ptr, ptr, ptr, ptr, ptr, ptr, ptr, ptr, ptr, ptr, ptr, ptr, ptr, ptr, ptr, ptr, ptr, ptr, ptr, ptr, ptr, ptr, ptr, ptr, ptr, ptr, ptr, ptr, ptr, ptr, ptr, ptr, ptr, ptr, ptr, ptr, ptr, ptr, ptr, ptr, ptr, ptr, ptr, ptr, ptr, ptr, ptr, ptr, ptr, ptr, ptr, ptr, ptr, ptr, ptr, ptr, ptr, ptr }
%class.QRect = type { i32, i32, i32, i32 }
%class.QFlags.143 = type { i32 }
%class.QWidgetData = type { i64, i32, %class.QFlags.143, i32, %class.QRect, [4 x i8], %class.QPalette, %class.QFont, %class.QRect }
%class.QPalette = type <{ ptr, i32, [4 x i8] }>
%class.QFont = type <{ %class.QExplicitlySharedDataPointer, i32, [4 x i8] }>
%class.QExplicitlySharedDataPointer = type { ptr }

; Function Attrs: inlinehint mustprogress null_pointer_is_valid sspstrong uwtable
define linkonce_odr noundef zeroext i1 @_ZNK7QWidget13testAttributeEN2Qt15WidgetAttributeE(ptr noundef align 8 dereferenceable_or_null(40) %0, i32 noundef %1) #8 comdat align 2 {
  %3 = alloca i1, align 1
  %4 = alloca ptr, align 8
  %5 = alloca i32, align 4
  store ptr %0, ptr %4, align 8
  store i32 %1, ptr %5, align 4
  %6 = load ptr, ptr %4, align 8
  %7 = load i32, ptr %5, align 4
  %8 = icmp slt i32 %7, 32
  br i1 %8, label %9, label %18

9:                                                ; preds = %2
  %10 = getelementptr inbounds nuw %class.QWidget, ptr %6, i32 0, i32 2
  %11 = load ptr, ptr %10, align 8
  %12 = getelementptr inbounds nuw %class.QWidgetData, ptr %11, i32 0, i32 1
  %13 = load i32, ptr %12, align 8
  %14 = load i32, ptr %5, align 4
  %15 = shl i32 1, %14
  %16 = and i32 %13, %15
  %17 = icmp ne i32 %16, 0
  store i1 %17, ptr %3, align 1
  br label %21

18:                                               ; preds = %2
  %19 = load i32, ptr %5, align 4
  %20 = call noundef zeroext i1 @_ZNK7QWidget20testAttribute_helperEN2Qt15WidgetAttributeE(ptr noundef align 8 dereferenceable_or_null(40) %6, i32 noundef %19)
  store i1 %20, ptr %3, align 1
  br label %21

21:                                               ; preds = %18, %9
  %22 = load i1, ptr %3, align 1
  ret i1 %22
}

; Function Attrs: inlinehint mustprogress null_pointer_is_valid sspstrong uwtable
define linkonce_odr noundef zeroext i1 @_ZNK7QWidget9isEnabledEv(ptr noundef align 8 dereferenceable_or_null(40) %0) #8 comdat align 2 {
  %2 = alloca ptr, align 8
  store ptr %0, ptr %2, align 8
  %3 = load ptr, ptr %2, align 8
  %4 = call noundef zeroext i1 @_ZNK7QWidget13testAttributeEN2Qt15WidgetAttributeE(ptr noundef align 8 dereferenceable_or_null(40) %3, i32 noundef 0)
  %5 = xor i1 %4, true
  ret i1 %5
}

; Function Attrs: mustprogress null_pointer_is_valid sspstrong uwtable
define void @_ZN15RtpPlayerDialog23on_actionStop_triggeredEv(ptr noundef align 8 dereferenceable_or_null(472) %0) #0 align 2 {
  %2 = alloca ptr, align 8
  store ptr %0, ptr %2, align 8
  %3 = load ptr, ptr %2, align 8
  %4 = getelementptr inbounds nuw %class.RtpPlayerDialog, ptr %3, i32 0, i32 1
  %5 = load ptr, ptr %4, align 8
  %6 = getelementptr inbounds nuw %class.Ui_RtpPlayerDialog, ptr %5, i32 0, i32 46
  %7 = load ptr, ptr %6, align 8
  %8 = call noundef zeroext i1 @_ZNK7QWidget9isEnabledEv(ptr noundef align 8 dereferenceable_or_null(40) %7)
  br i1 %8, label %9, label %14

9:                                                ; preds = %1
  %10 = getelementptr inbounds nuw %class.RtpPlayerDialog, ptr %3, i32 0, i32 1
  %11 = load ptr, ptr %10, align 8
  %12 = getelementptr inbounds nuw %class.Ui_RtpPlayerDialog, ptr %11, i32 0, i32 46
  %13 = load ptr, ptr %12, align 8
  call void @_ZN15QAbstractButton12animateClickEv(ptr noundef align 8 dereferenceable_or_null(40) %13)
  br label %14

14:                                               ; preds = %9, %1
  ret void
}