; Function Attrs: mustprogress null_pointer_is_valid sspstrong uwtable
define void @_ZN15RtpPlayerDialog23on_actionStop_triggeredEv(ptr noundef readonly align 8 captures(none) dereferenceable_or_null(472) %0) local_unnamed_addr #0 align 2 {
  %2 = getelementptr inbounds nuw i8, ptr %0, i64 144
  %3 = load ptr, ptr %2, align 8
  %4 = getelementptr inbounds nuw i8, ptr %3, i64 368
  %5 = load ptr, ptr %4, align 8
  %6 = getelementptr inbounds nuw i8, ptr %5, i64 32
  %7 = load ptr, ptr %6, align 8
  %8 = getelementptr inbounds nuw i8, ptr %7, i64 8
  %9 = load i32, ptr %8, align 8
  %10 = and i32 %9, 1
  %.not.i = icmp eq i32 %10, 0
  br i1 %.not.i, label %11, label %12

11:                                               ; preds = %1
  tail call void @_ZN15QAbstractButton12animateClickEv(ptr noundef align 8 dereferenceable_or_null(40) %5)
  br label %12

12:                                               ; preds = %11, %1
  ret void
}